target datalayout = "e-m:e-p270:32:32-p271:32:32-p272:64:64-i64:64-i128:128-f80:128-n8:16:32:64-S128"
target triple = "x86_64-pc-linux-gnu"

%struct.lua_State = type { %struct.GCRef, i8, i8, i8, i8, %struct.MRef, %struct.GCRef, ptr, ptr, %struct.MRef, %struct.MRef, %struct.GCRef, %struct.GCRef, ptr, i32 }
%struct.MRef = type { i64 }
%struct.GCRef = type { i64 }
%union.TValue = type { i64 }
%struct.CTState = type { ptr, i32, i32, ptr, ptr, ptr, %struct.CCallback, [128 x i16] }
%struct.CCallback = type { [8 x %union.FPRCBArg], [8 x i64], ptr, ptr, ptr, i32, i32, i32 }
%union.FPRCBArg = type { double }
%struct.global_State = type { ptr, ptr, %struct.GCState, %struct.GCstr, i8, i8, i8, i8, %struct.StrInternState, i32, %struct.GCRef, %struct.SBuf, %union.TValue, %union.TValue, %struct.Node, %union.TValue, %struct.GCupval, i32, i32, ptr, ptr, ptr, i32, i32, %struct.GCRef, %struct.MRef, %struct.MRef, %struct.PRNGState, [39 x %struct.GCRef] }
%struct.GCState = type { i64, i64, i8, i8, i8, i8, i32, %struct.GCRef, %struct.MRef, %struct.GCRef, %struct.GCRef, %struct.GCRef, %struct.GCRef, i64, i64, i32, i32, %struct.MRef }
%struct.GCstr = type { %struct.GCRef, i8, i8, i8, i8, i32, i32, i32 }
%struct.StrInternState = type { ptr, i32, i32, i32, i8, i8, i8, i8, i64 }
%struct.SBuf = type { ptr, ptr, ptr, %struct.MRef }
%struct.Node = type { %union.TValue, %union.TValue, %struct.MRef }
%struct.GCupval = type { %struct.GCRef, i8, i8, i8, i8, %union.anon, %struct.MRef, i32 }
%union.anon = type { %struct.anon.1 }
%struct.anon.1 = type { %struct.GCRef, %struct.GCRef }
%struct.PRNGState = type { [4 x i64] }
%struct.GChead = type { %struct.GCRef, i8, i8, i8, i8, %struct.GCRef, %struct.GCRef, %struct.GCRef }
%struct.CType = type { i32, i32, i16, i16, %struct.GCRef }

@.str.2 = private unnamed_addr constant [24 x i8] c"store to dead GC object\00", align 1
@.str.8 = private unnamed_addr constant [5 x i8] c"info\00", align 1
@.str.9 = private unnamed_addr constant [5 x i8] c"size\00", align 1
@.str.10 = private unnamed_addr constant [4 x i8] c"sib\00", align 1
@.str.11 = private unnamed_addr constant [5 x i8] c"name\00", align 1

; Function Attrs: alwaysinline nounwind uwtable
define internal void @checklivetv(ptr noundef %0, ptr noundef %1, ptr noundef %2) #3 {
  %4 = alloca ptr, align 8
  %5 = alloca ptr, align 8
  %6 = alloca ptr, align 8
  store ptr %0, ptr %4, align 8, !tbaa !4
  store ptr %1, ptr %5, align 8, !tbaa !30
  store ptr %2, ptr %6, align 8, !tbaa !35
  ret void
}

; Function Attrs: alwaysinline nounwind uwtable
define internal void @setgcVraw(ptr noundef %0, ptr noundef %1, i32 noundef %2) #3 {
  %4 = alloca ptr, align 8
  %5 = alloca ptr, align 8
  %6 = alloca i32, align 4
  store ptr %0, ptr %4, align 8, !tbaa !30
  store ptr %1, ptr %5, align 8, !tbaa !32
  store i32 %2, ptr %6, align 4, !tbaa !34
  %7 = load ptr, ptr %5, align 8, !tbaa !32
  %8 = ptrtoint ptr %7 to i64
  %9 = load i32, ptr %6, align 4, !tbaa !34
  %10 = zext i32 %9 to i64
  %11 = shl i64 %10, 47
  %12 = or i64 %8, %11
  %13 = load ptr, ptr %4, align 8, !tbaa !30
  %14 = getelementptr inbounds nuw %struct.GCRef, ptr %13, i32 0, i32 0
  store i64 %12, ptr %14, align 8, !tbaa !26
  ret void
}

; Function Attrs: alwaysinline nounwind uwtable
define internal void @setgcV(ptr noundef %0, ptr noundef %1, ptr noundef %2, i32 noundef %3) #3 {
  %5 = alloca ptr, align 8
  %6 = alloca ptr, align 8
  %7 = alloca ptr, align 8
  %8 = alloca i32, align 4
  store ptr %0, ptr %5, align 8, !tbaa !4
  store ptr %1, ptr %6, align 8, !tbaa !30
  store ptr %2, ptr %7, align 8, !tbaa !32
  store i32 %3, ptr %8, align 4, !tbaa !34
  %9 = load ptr, ptr %6, align 8, !tbaa !30
  %10 = load ptr, ptr %7, align 8, !tbaa !32
  %11 = load i32, ptr %8, align 4, !tbaa !34
  call void @setgcVraw(ptr noundef %9, ptr noundef %10, i32 noundef %11)
  %12 = load ptr, ptr %5, align 8, !tbaa !4
  %13 = load ptr, ptr %6, align 8, !tbaa !30
  call void @checklivetv(ptr noundef %12, ptr noundef %13, ptr noundef @.str.2)
  ret void
}

; Function Attrs: alwaysinline nounwind uwtable
define internal i32 @ctype_check(ptr noundef %0, i32 noundef %1) #3 {
  %3 = alloca ptr, align 8
  %4 = alloca i32, align 4
  store ptr %0, ptr %3, align 8, !tbaa !9
  store i32 %1, ptr %4, align 4, !tbaa !34
  %5 = load i32, ptr %4, align 4, !tbaa !34
  ret i32 %5
}

; Function Attrs: alwaysinline nounwind uwtable
define internal void @setstrV(ptr noundef %0, ptr noundef %1, ptr noundef %2) #3 {
  %4 = alloca ptr, align 8
  %5 = alloca ptr, align 8
  %6 = alloca ptr, align 8
  store ptr %0, ptr %4, align 8, !tbaa !4
  store ptr %1, ptr %5, align 8, !tbaa !30
  store ptr %2, ptr %6, align 8, !tbaa !69
  %7 = load ptr, ptr %4, align 8, !tbaa !4
  %8 = load ptr, ptr %5, align 8, !tbaa !30
  %9 = load ptr, ptr %6, align 8, !tbaa !69
  call void @setgcV(ptr noundef %7, ptr noundef %8, ptr noundef %9, i32 noundef -5)
  ret void
}

; Function Attrs: alwaysinline nounwind uwtable
define internal void @setintV(ptr noundef %0, i32 noundef %1) #3 {
  %3 = alloca ptr, align 8
  %4 = alloca i32, align 4
  store ptr %0, ptr %3, align 8, !tbaa !30
  store i32 %1, ptr %4, align 4, !tbaa !34
  %5 = load i32, ptr %4, align 4, !tbaa !34
  %6 = sitofp i32 %5 to double
  %7 = load ptr, ptr %3, align 8, !tbaa !30
  store double %6, ptr %7, align 8, !tbaa !26
  ret void
}

; Function Attrs: alwaysinline nounwind uwtable
define internal ptr @ctype_get(ptr noundef %0, i32 noundef %1) #3 {
  %3 = alloca ptr, align 8
  %4 = alloca i32, align 4
  store ptr %0, ptr %3, align 8, !tbaa !9
  store i32 %1, ptr %4, align 4, !tbaa !34
  %5 = load ptr, ptr %3, align 8, !tbaa !9
  %6 = getelementptr inbounds nuw %struct.CTState, ptr %5, i32 0, i32 0
  %7 = load ptr, ptr %6, align 8, !tbaa !60
  %8 = load ptr, ptr %3, align 8, !tbaa !9
  %9 = load i32, ptr %4, align 4, !tbaa !34
  %10 = call i32 @ctype_check(ptr noundef %8, i32 noundef %9)
  %11 = zext i32 %10 to i64
  %12 = getelementptr inbounds nuw %struct.CType, ptr %7, i64 %11
  ret ptr %12
}

; Function Attrs: nounwind uwtable
define internal i32 @ffi_checkint(ptr noundef %0, i32 noundef %1) #0 {
  %3 = alloca ptr, align 8
  %4 = alloca i32, align 4
  %5 = alloca ptr, align 8
  %6 = alloca ptr, align 8
  %7 = alloca i32, align 4
  store ptr %0, ptr %3, align 8, !tbaa !4
  store i32 %1, ptr %4, align 4, !tbaa !34
  call void @llvm.lifetime.start.p0(i64 8, ptr %5) #10
  %8 = load ptr, ptr %3, align 8, !tbaa !4
  %9 = call ptr @ctype_cts(ptr noundef %8)
  store ptr %9, ptr %5, align 8, !tbaa !9
  call void @llvm.lifetime.start.p0(i64 8, ptr %6) #10
  %10 = load ptr, ptr %3, align 8, !tbaa !4
  %11 = getelementptr inbounds nuw %struct.lua_State, ptr %10, i32 0, i32 7
  %12 = load ptr, ptr %11, align 8, !tbaa !37
  %13 = load i32, ptr %4, align 4, !tbaa !34
  %14 = sext i32 %13 to i64
  %15 = getelementptr inbounds %union.TValue, ptr %12, i64 %14
  %16 = getelementptr inbounds %union.TValue, ptr %15, i64 -1
  store ptr %16, ptr %6, align 8, !tbaa !30
  call void @llvm.lifetime.start.p0(i64 4, ptr %7) #10
  %17 = load ptr, ptr %6, align 8, !tbaa !30
  %18 = load ptr, ptr %3, align 8, !tbaa !4
  %19 = getelementptr inbounds nuw %struct.lua_State, ptr %18, i32 0, i32 8
  %20 = load ptr, ptr %19, align 8, !tbaa !11
  %21 = icmp uge ptr %17, %20
  br i1 %21, label %22, label %25

22:                                               ; preds = %2
  %23 = load ptr, ptr %3, align 8, !tbaa !4
  %24 = load i32, ptr %4, align 4, !tbaa !34
  call void @lj_err_arg(ptr noundef %23, i32 noundef %24, i32 noundef 551) #11
  unreachable

25:                                               ; preds = %2
  %26 = load ptr, ptr %5, align 8, !tbaa !9
  %27 = load ptr, ptr %5, align 8, !tbaa !9
  %28 = call ptr @ctype_get(ptr noundef %27, i32 noundef 9)
  %29 = load ptr, ptr %6, align 8, !tbaa !30
  %30 = load i32, ptr %4, align 4, !tbaa !34
  %31 = shl i32 %30, 8
  call void @lj_cconv_ct_tv(ptr noundef %26, ptr noundef %28, ptr noundef %7, ptr noundef %29, i32 noundef %31)
  %32 = load i32, ptr %7, align 4, !tbaa !34
  call void @llvm.lifetime.end.p0(i64 4, ptr %7) #10
  call void @llvm.lifetime.end.p0(i64 8, ptr %6) #10
  call void @llvm.lifetime.end.p0(i64 8, ptr %5) #10
  ret i32 %32
}

; Function Attrs: alwaysinline nounwind uwtable
define internal ptr @ctype_cts(ptr noundef %0) #3 {
  %2 = alloca ptr, align 8
  %3 = alloca ptr, align 8
  store ptr %0, ptr %2, align 8, !tbaa !4
  call void @llvm.lifetime.start.p0(i64 8, ptr %3) #10
  %4 = load ptr, ptr %2, align 8, !tbaa !4
  %5 = getelementptr inbounds nuw %struct.lua_State, ptr %4, i32 0, i32 5
  %6 = getelementptr inbounds nuw %struct.MRef, ptr %5, i32 0, i32 0
  %7 = load i64, ptr %6, align 8, !tbaa !27
  %8 = inttoptr i64 %7 to ptr
  %9 = getelementptr inbounds nuw %struct.global_State, ptr %8, i32 0, i32 26
  %10 = getelementptr inbounds nuw %struct.MRef, ptr %9, i32 0, i32 0
  %11 = load i64, ptr %10, align 8, !tbaa !61
  %12 = inttoptr i64 %11 to ptr
  store ptr %12, ptr %3, align 8, !tbaa !9
  %13 = load ptr, ptr %2, align 8, !tbaa !4
  %14 = load ptr, ptr %3, align 8, !tbaa !9
  %15 = getelementptr inbounds nuw %struct.CTState, ptr %14, i32 0, i32 3
  store ptr %13, ptr %15, align 8, !tbaa !62
  %16 = load ptr, ptr %3, align 8, !tbaa !9
  call void @llvm.lifetime.end.p0(i64 8, ptr %3) #10
  ret ptr %16
}

; Function Attrs: nounwind uwtable
define internal i32 @lj_cf_ffi_typeinfo(ptr noundef %0) #0 {
  %2 = alloca i32, align 4
  %3 = alloca ptr, align 8
  %4 = alloca ptr, align 8
  %5 = alloca i32, align 4
  %6 = alloca ptr, align 8
  %7 = alloca ptr, align 8
  %8 = alloca ptr, align 8
  %9 = alloca i32, align 4
  store ptr %0, ptr %3, align 8, !tbaa !4
  call void @llvm.lifetime.start.p0(i64 8, ptr %4) #10
  %10 = load ptr, ptr %3, align 8, !tbaa !4
  %11 = call ptr @ctype_cts(ptr noundef %10)
  store ptr %11, ptr %4, align 8, !tbaa !9
  call void @llvm.lifetime.start.p0(i64 4, ptr %5) #10
  %12 = load ptr, ptr %3, align 8, !tbaa !4
  %13 = call i32 @ffi_checkint(ptr noundef %12, i32 noundef 1)
  store i32 %13, ptr %5, align 4, !tbaa !34
  %14 = load i32, ptr %5, align 4, !tbaa !34
  %15 = icmp ugt i32 %14, 0
  br i1 %15, label %16, label %144

16:                                               ; preds = %1
  %17 = load i32, ptr %5, align 4, !tbaa !34
  %18 = load ptr, ptr %4, align 8, !tbaa !9
  %19 = getelementptr inbounds nuw %struct.CTState, ptr %18, i32 0, i32 1
  %20 = load i32, ptr %19, align 8, !tbaa !94
  %21 = icmp ult i32 %17, %20
  br i1 %21, label %22, label %144

22:                                               ; preds = %16
  call void @llvm.lifetime.start.p0(i64 8, ptr %6) #10
  %23 = load ptr, ptr %4, align 8, !tbaa !9
  %24 = load i32, ptr %5, align 4, !tbaa !34
  %25 = call ptr @ctype_get(ptr noundef %23, i32 noundef %24)
  store ptr %25, ptr %6, align 8, !tbaa !38
  call void @llvm.lifetime.start.p0(i64 8, ptr %7) #10
  %26 = load ptr, ptr %3, align 8, !tbaa !4
  call void @lua_createtable(ptr noundef %26, i32 noundef 0, i32 noundef 4)
  %27 = load ptr, ptr %3, align 8, !tbaa !4
  %28 = getelementptr inbounds nuw %struct.lua_State, ptr %27, i32 0, i32 8
  %29 = load ptr, ptr %28, align 8, !tbaa !11
  %30 = getelementptr inbounds %union.TValue, ptr %29, i64 -1
  %31 = getelementptr inbounds nuw %struct.GCRef, ptr %30, i32 0, i32 0
  %32 = load i64, ptr %31, align 8, !tbaa !26
  %33 = and i64 %32, 140737488355327
  %34 = inttoptr i64 %33 to ptr
  store ptr %34, ptr %7, align 8, !tbaa !31
  %35 = load ptr, ptr %3, align 8, !tbaa !4
  %36 = load ptr, ptr %7, align 8, !tbaa !31
  %37 = load ptr, ptr %3, align 8, !tbaa !4
  %38 = call ptr @lj_str_new(ptr noundef %37, ptr noundef @.str.8, i64 noundef 4)
  %39 = call ptr @lj_tab_setstr(ptr noundef %35, ptr noundef %36, ptr noundef %38)
  %40 = load ptr, ptr %6, align 8, !tbaa !38
  %41 = getelementptr inbounds nuw %struct.CType, ptr %40, i32 0, i32 0
  %42 = load i32, ptr %41, align 8, !tbaa !55
  call void @setintV(ptr noundef %39, i32 noundef %42)
  %43 = load ptr, ptr %6, align 8, !tbaa !38
  %44 = getelementptr inbounds nuw %struct.CType, ptr %43, i32 0, i32 1
  %45 = load i32, ptr %44, align 4, !tbaa !58
  %46 = icmp ne i32 %45, -1
  br i1 %46, label %47, label %56

47:                                               ; preds = %22
  %48 = load ptr, ptr %3, align 8, !tbaa !4
  %49 = load ptr, ptr %7, align 8, !tbaa !31
  %50 = load ptr, ptr %3, align 8, !tbaa !4
  %51 = call ptr @lj_str_new(ptr noundef %50, ptr noundef @.str.9, i64 noundef 4)
  %52 = call ptr @lj_tab_setstr(ptr noundef %48, ptr noundef %49, ptr noundef %51)
  %53 = load ptr, ptr %6, align 8, !tbaa !38
  %54 = getelementptr inbounds nuw %struct.CType, ptr %53, i32 0, i32 1
  %55 = load i32, ptr %54, align 4, !tbaa !58
  call void @setintV(ptr noundef %52, i32 noundef %55)
  br label %56

56:                                               ; preds = %47, %22
  %57 = load ptr, ptr %6, align 8, !tbaa !38
  %58 = getelementptr inbounds nuw %struct.CType, ptr %57, i32 0, i32 2
  %59 = load i16, ptr %58, align 8, !tbaa !95
  %60 = icmp ne i16 %59, 0
  br i1 %60, label %61, label %71

61:                                               ; preds = %56
  %62 = load ptr, ptr %3, align 8, !tbaa !4
  %63 = load ptr, ptr %7, align 8, !tbaa !31
  %64 = load ptr, ptr %3, align 8, !tbaa !4
  %65 = call ptr @lj_str_new(ptr noundef %64, ptr noundef @.str.10, i64 noundef 3)
  %66 = call ptr @lj_tab_setstr(ptr noundef %62, ptr noundef %63, ptr noundef %65)
  %67 = load ptr, ptr %6, align 8, !tbaa !38
  %68 = getelementptr inbounds nuw %struct.CType, ptr %67, i32 0, i32 2
  %69 = load i16, ptr %68, align 8, !tbaa !95
  %70 = zext i16 %69 to i32
  call void @setintV(ptr noundef %66, i32 noundef %70)
  br label %71

71:                                               ; preds = %61, %56
  %72 = load ptr, ptr %6, align 8, !tbaa !38
  %73 = getelementptr inbounds nuw %struct.CType, ptr %72, i32 0, i32 4
  %74 = getelementptr inbounds nuw %struct.GCRef, ptr %73, i32 0, i32 0
  %75 = load i64, ptr %74, align 8, !tbaa !96
  %76 = inttoptr i64 %75 to ptr
  %77 = icmp ne ptr %76, null
  br i1 %77, label %78, label %116

78:                                               ; preds = %71
  call void @llvm.lifetime.start.p0(i64 8, ptr %8) #10
  %79 = load ptr, ptr %6, align 8, !tbaa !38
  %80 = getelementptr inbounds nuw %struct.CType, ptr %79, i32 0, i32 4
  %81 = getelementptr inbounds nuw %struct.GCRef, ptr %80, i32 0, i32 0
  %82 = load i64, ptr %81, align 8, !tbaa !96
  %83 = inttoptr i64 %82 to ptr
  store ptr %83, ptr %8, align 8, !tbaa !69
  %84 = load ptr, ptr %8, align 8, !tbaa !69
  %85 = getelementptr inbounds nuw %struct.GChead, ptr %84, i32 0, i32 1
  %86 = load i8, ptr %85, align 8, !tbaa !26
  %87 = zext i8 %86 to i32
  %88 = load ptr, ptr %3, align 8, !tbaa !4
  %89 = getelementptr inbounds nuw %struct.lua_State, ptr %88, i32 0, i32 5
  %90 = getelementptr inbounds nuw %struct.MRef, ptr %89, i32 0, i32 0
  %91 = load i64, ptr %90, align 8, !tbaa !27
  %92 = inttoptr i64 %91 to ptr
  %93 = getelementptr inbounds nuw %struct.global_State, ptr %92, i32 0, i32 2
  %94 = getelementptr inbounds nuw %struct.GCState, ptr %93, i32 0, i32 2
  %95 = load i8, ptr %94, align 8, !tbaa !97
  %96 = zext i8 %95 to i32
  %97 = xor i32 %96, 3
  %98 = and i32 %87, %97
  %99 = and i32 %98, 3
  %100 = icmp ne i32 %99, 0
  br i1 %100, label %101, label %108

101:                                              ; preds = %78
  %102 = load ptr, ptr %8, align 8, !tbaa !69
  %103 = getelementptr inbounds nuw %struct.GChead, ptr %102, i32 0, i32 1
  %104 = load i8, ptr %103, align 8, !tbaa !26
  %105 = zext i8 %104 to i32
  %106 = xor i32 %105, 3
  %107 = trunc i32 %106 to i8
  store i8 %107, ptr %103, align 8, !tbaa !26
  br label %108

108:                                              ; preds = %101, %78
  %109 = load ptr, ptr %3, align 8, !tbaa !4
  %110 = load ptr, ptr %3, align 8, !tbaa !4
  %111 = load ptr, ptr %7, align 8, !tbaa !31
  %112 = load ptr, ptr %3, align 8, !tbaa !4
  %113 = call ptr @lj_str_new(ptr noundef %112, ptr noundef @.str.11, i64 noundef 4)
  %114 = call ptr @lj_tab_setstr(ptr noundef %110, ptr noundef %111, ptr noundef %113)
  %115 = load ptr, ptr %8, align 8, !tbaa !69
  call void @setstrV(ptr noundef %109, ptr noundef %114, ptr noundef %115)
  call void @llvm.lifetime.end.p0(i64 8, ptr %8) #10
  br label %116

116:                                              ; preds = %108, %71
  %117 = load ptr, ptr %3, align 8, !tbaa !4
  %118 = getelementptr inbounds nuw %struct.lua_State, ptr %117, i32 0, i32 5
  %119 = getelementptr inbounds nuw %struct.MRef, ptr %118, i32 0, i32 0
  %120 = load i64, ptr %119, align 8, !tbaa !27
  %121 = inttoptr i64 %120 to ptr
  %122 = getelementptr inbounds nuw %struct.global_State, ptr %121, i32 0, i32 2
  %123 = getelementptr inbounds nuw %struct.GCState, ptr %122, i32 0, i32 0
  %124 = load i64, ptr %123, align 8, !tbaa !39
  %125 = load ptr, ptr %3, align 8, !tbaa !4
  %126 = getelementptr inbounds nuw %struct.lua_State, ptr %125, i32 0, i32 5
  %127 = getelementptr inbounds nuw %struct.MRef, ptr %126, i32 0, i32 0
  %128 = load i64, ptr %127, align 8, !tbaa !27
  %129 = inttoptr i64 %128 to ptr
  %130 = getelementptr inbounds nuw %struct.global_State, ptr %129, i32 0, i32 2
  %131 = getelementptr inbounds nuw %struct.GCState, ptr %130, i32 0, i32 1
  %132 = load i64, ptr %131, align 8, !tbaa !49
  %133 = icmp uge i64 %124, %132
  %134 = xor i1 %133, true
  %135 = xor i1 %134, true
  %136 = zext i1 %135 to i32
  %137 = sext i32 %136 to i64
  %138 = call i64 @llvm.expect.i64(i64 %137, i64 0)
  %139 = icmp ne i64 %138, 0
  br i1 %139, label %140, label %143

140:                                              ; preds = %116
  %141 = load ptr, ptr %3, align 8, !tbaa !4
  %142 = call i32 @lj_gc_step(ptr noundef %141)
  br label %143

143:                                              ; preds = %140, %116
  store i32 1, ptr %2, align 4
  store i32 1, ptr %9, align 4
  call void @llvm.lifetime.end.p0(i64 8, ptr %7) #10
  call void @llvm.lifetime.end.p0(i64 8, ptr %6) #10
  br label %145

144:                                              ; preds = %16, %1
  store i32 0, ptr %2, align 4
  store i32 1, ptr %9, align 4
  br label %145

145:                                              ; preds = %144, %143
  call void @llvm.lifetime.end.p0(i64 4, ptr %5) #10
  call void @llvm.lifetime.end.p0(i64 8, ptr %4) #10
  %146 = load i32, ptr %2, align 4
  ret i32 %146
}