; Function Attrs: nounwind uwtable
define internal range(i32 0, 2) i32 @lj_cf_ffi_typeinfo(ptr noundef %0) #0 {
  %2 = alloca i32, align 4
  %3 = getelementptr inbounds nuw i8, ptr %0, i64 16
  %4 = load i64, ptr %3, align 8, !tbaa !24
  %5 = inttoptr i64 %4 to ptr
  %6 = getelementptr inbounds nuw i8, ptr %5, i64 384
  %7 = load i64, ptr %6, align 8, !tbaa !41
  %8 = inttoptr i64 %7 to ptr
  %9 = getelementptr inbounds nuw i8, ptr %8, i64 16
  store ptr %0, ptr %9, align 8, !tbaa !42
  %10 = getelementptr inbounds nuw i8, ptr %0, i64 32
  %11 = load ptr, ptr %10, align 8, !tbaa !44
  call void @llvm.lifetime.start.p0(i64 4, ptr nonnull %2) #9
  %12 = getelementptr inbounds nuw i8, ptr %0, i64 40
  %13 = load ptr, ptr %12, align 8, !tbaa !4
  %.not.i = icmp ult ptr %11, %13
  br i1 %.not.i, label %ffi_checkint.exit, label %14

14:                                               ; preds = %1
  tail call void @lj_err_arg(ptr noundef nonnull %0, i32 noundef 1, i32 noundef 551) #10
  unreachable

ffi_checkint.exit:                                ; preds = %1
  %15 = load ptr, ptr %8, align 8, !tbaa !51
  %16 = getelementptr inbounds nuw i8, ptr %15, i64 216
  call void @lj_cconv_ct_tv(ptr noundef nonnull %8, ptr noundef nonnull %16, ptr noundef nonnull %2, ptr noundef nonnull %11, i32 noundef 256) #9
  %17 = load i32, ptr %2, align 4, !tbaa !43
  call void @llvm.lifetime.end.p0(i64 4, ptr nonnull %2) #9
  %.not = icmp eq i32 %17, 0
  br i1 %.not, label %79, label %18

18:                                               ; preds = %ffi_checkint.exit
  %19 = getelementptr inbounds nuw i8, ptr %8, i64 8
  %20 = load i32, ptr %19, align 8, !tbaa !80
  %21 = icmp ult i32 %17, %20
  br i1 %21, label %22, label %79

22:                                               ; preds = %18
  %23 = load ptr, ptr %8, align 8, !tbaa !51
  %24 = zext i32 %17 to i64
  %25 = getelementptr inbounds nuw %struct.CType, ptr %23, i64 %24
  call void @lua_createtable(ptr noundef nonnull %0, i32 noundef 0, i32 noundef 4) #9
  %26 = load ptr, ptr %12, align 8, !tbaa !4
  %27 = getelementptr inbounds i8, ptr %26, i64 -8
  %28 = load i64, ptr %27, align 8, !tbaa !23
  %29 = and i64 %28, 140737488355327
  %30 = inttoptr i64 %29 to ptr
  %31 = call ptr @lj_str_new(ptr noundef nonnull %0, ptr noundef nonnull @.str.8, i64 noundef 4) #9
  %32 = call ptr @lj_tab_setstr(ptr noundef nonnull %0, ptr noundef %30, ptr noundef %31) #9
  %33 = load i32, ptr %25, align 8, !tbaa !52
  %34 = sitofp i32 %33 to double
  store double %34, ptr %32, align 8, !tbaa !23
  %35 = getelementptr inbounds nuw i8, ptr %25, i64 4
  %36 = load i32, ptr %35, align 4, !tbaa !58
  %.not38 = icmp eq i32 %36, -1
  br i1 %.not38, label %42, label %37

37:                                               ; preds = %22
  %38 = call ptr @lj_str_new(ptr noundef nonnull %0, ptr noundef nonnull @.str.9, i64 noundef 4) #9
  %39 = call ptr @lj_tab_setstr(ptr noundef nonnull %0, ptr noundef %30, ptr noundef %38) #9
  %40 = load i32, ptr %35, align 4, !tbaa !58
  %41 = sitofp i32 %40 to double
  store double %41, ptr %39, align 8, !tbaa !23
  br label %42

42:                                               ; preds = %37, %22
  %43 = getelementptr inbounds nuw i8, ptr %25, i64 8
  %44 = load i16, ptr %43, align 8, !tbaa !81
  %.not39 = icmp eq i16 %44, 0
  br i1 %.not39, label %50, label %45

45:                                               ; preds = %42
  %46 = call ptr @lj_str_new(ptr noundef nonnull %0, ptr noundef nonnull @.str.10, i64 noundef 3) #9
  %47 = call ptr @lj_tab_setstr(ptr noundef nonnull %0, ptr noundef %30, ptr noundef %46) #9
  %48 = load i16, ptr %43, align 8, !tbaa !81
  %49 = uitofp i16 %48 to double
  store double %49, ptr %47, align 8, !tbaa !23
  br label %50

50:                                               ; preds = %45, %42
  %51 = getelementptr inbounds nuw i8, ptr %25, i64 16
  %52 = load i64, ptr %51, align 8, !tbaa !82
  %.not40 = icmp eq i64 %52, 0
  br i1 %.not40, label %70, label %53

53:                                               ; preds = %50
  %54 = inttoptr i64 %52 to ptr
  %55 = getelementptr inbounds nuw i8, ptr %54, i64 8
  %56 = load i8, ptr %55, align 8, !tbaa !23
  %57 = load i64, ptr %3, align 8, !tbaa !24
  %58 = inttoptr i64 %57 to ptr
  %59 = getelementptr inbounds nuw i8, ptr %58, i64 32
  %60 = load i8, ptr %59, align 8, !tbaa !83
  %61 = xor i8 %60, -1
  %62 = and i8 %56, 3
  %63 = and i8 %62, %61
  %.not41 = icmp eq i8 %63, 0
  br i1 %.not41, label %66, label %64

64:                                               ; preds = %53
  %65 = xor i8 %56, 3
  store i8 %65, ptr %55, align 8, !tbaa !23
  br label %66

66:                                               ; preds = %64, %53
  %67 = call ptr @lj_str_new(ptr noundef nonnull %0, ptr noundef nonnull @.str.11, i64 noundef 4) #9
  %68 = call ptr @lj_tab_setstr(ptr noundef nonnull %0, ptr noundef %30, ptr noundef %67) #9
  %69 = or i64 %52, -703687441776640
  store i64 %69, ptr %68, align 8, !tbaa !23
  br label %70

70:                                               ; preds = %66, %50
  %71 = load i64, ptr %3, align 8, !tbaa !24
  %72 = inttoptr i64 %71 to ptr
  %73 = getelementptr inbounds nuw i8, ptr %72, i64 16
  %74 = load i64, ptr %73, align 8, !tbaa !46
  %75 = getelementptr inbounds nuw i8, ptr %72, i64 24
  %76 = load i64, ptr %75, align 8, !tbaa !47
  %.not42 = icmp ult i64 %74, %76
  br i1 %.not42, label %79, label %77, !prof !27

77:                                               ; preds = %70
  %78 = call i32 @lj_gc_step(ptr noundef nonnull %0) #9
  br label %79

79:                                               ; preds = %ffi_checkint.exit, %18, %70, %77
  %.0 = phi i32 [ 1, %77 ], [ 1, %70 ], [ 0, %18 ], [ 0, %ffi_checkint.exit ]
  ret i32 %.0
}